target datalayout = "e-m:e-p270:32:32-p271:32:32-p272:64:64-i64:64-i128:128-f80:128-n8:16:32:64-S128"
target triple = "x86_64-pc-linux-gnu"

%"class.clang::NamedDecl" = type { %"class.clang::Decl.base", %"class.clang::DeclarationName" }
%"class.clang::Decl.base" = type <{ ptr, %"class.llvm::PointerIntPair", %"class.llvm::PointerUnion", %"class.clang::SourceLocation", i32, i8 }>
%"class.llvm::PointerIntPair" = type { %"struct.llvm::detail::PunnedPointer" }
%"struct.llvm::detail::PunnedPointer" = type { [8 x i8] }
%"class.llvm::PointerUnion" = type { %"class.llvm::pointer_union_detail::PointerUnionMembers" }
%"class.llvm::pointer_union_detail::PointerUnionMembers" = type { %"class.llvm::pointer_union_detail::PointerUnionMembers.0" }
%"class.llvm::pointer_union_detail::PointerUnionMembers.0" = type { %"class.llvm::pointer_union_detail::PointerUnionMembers.1" }
%"class.llvm::pointer_union_detail::PointerUnionMembers.1" = type { %"class.llvm::PointerIntPair.2" }
%"class.llvm::PointerIntPair.2" = type { %"struct.llvm::detail::PunnedPointer.3" }
%"struct.llvm::detail::PunnedPointer.3" = type { [8 x i8] }
%"class.clang::SourceLocation" = type { i32 }
%"class.clang::DeclarationName" = type { i64 }
%"class.(anonymous namespace)::ASTMaker" = type { ptr }
%"class.clang::QualType" = type { %"class.llvm::PointerIntPair.4" }
%"class.llvm::PointerIntPair.4" = type { %"struct.llvm::detail::PunnedPointer.5" }
%"struct.llvm::detail::PunnedPointer.5" = type { [8 x i8] }
%"class.clang::ValueDecl" = type { %"class.clang::NamedDecl", %"class.clang::QualType" }
%"class.clang::NestedNameSpecifierLoc" = type { ptr, ptr }
%"class.clang::DeclarationNameLoc" = type { %union.anon.24 }
%union.anon.24 = type { %"struct.clang::DeclarationNameLoc::NT" }
%"struct.clang::DeclarationNameLoc::NT" = type { ptr }
%"class.clang::DeclAccessPair" = type { %"struct.llvm::support::detail::packed_endian_specific_integral" }
%"struct.llvm::support::detail::packed_endian_specific_integral" = type { %struct.anon }
%struct.anon = type { [8 x i8] }
%"struct.clang::DeclarationNameInfo" = type { %"class.clang::DeclarationName", %"class.clang::SourceLocation", %"class.clang::DeclarationNameLoc" }

; Function Attrs: mustprogress nounwind uwtable
define linkonce_odr hidden noundef i64 @_ZN4llvm8byteswapImvEET_S1_(i64 noundef %0) #0 comdat {
  %2 = alloca i64, align 8
  %3 = alloca i64, align 8
  store i64 %0, ptr %2, align 8
  %4 = load i64, ptr %2, align 8
  store i64 %4, ptr %3, align 8
  %5 = load i64, ptr %3, align 8
  %6 = call i64 @llvm.bswap.i64(i64 %5)
  ret i64 %6
}

; Function Attrs: mustprogress nounwind uwtable
define linkonce_odr hidden noundef i64 @_ZN4llvm3sys15getSwappedBytesEm(i64 noundef %0) #0 comdat {
  %2 = alloca i64, align 8
  store i64 %0, ptr %2, align 8
  %3 = load i64, ptr %2, align 8
  %4 = call noundef i64 @_ZN4llvm8byteswapImvEET_S1_(i64 noundef %3) #9
  ret i64 %4
}

; Function Attrs: mustprogress nounwind uwtable
define linkonce_odr hidden void @_ZN4llvm3sys13swapByteOrderImEEvRT_(ptr noundef nonnull align 8 dereferenceable(8) %0) #0 comdat {
  %2 = alloca ptr, align 8
  store ptr %0, ptr %2, align 8
  %3 = load ptr, ptr %2, align 8
  %4 = load i64, ptr %3, align 8
  %5 = call noundef i64 @_ZN4llvm3sys15getSwappedBytesEm(i64 noundef %4)
  %6 = load ptr, ptr %2, align 8
  store i64 %5, ptr %6, align 8
  ret void
}

; Function Attrs: mustprogress nounwind uwtable
define linkonce_odr hidden noundef i64 @_ZN4llvm7support6endian9byte_swapImEET_S3_NS_10endiannessE(i64 noundef %0, i32 noundef %1) #0 comdat {
  %3 = alloca i64, align 8
  %4 = alloca i32, align 4
  store i64 %0, ptr %3, align 8
  store i32 %1, ptr %4, align 4
  %5 = load i32, ptr %4, align 4
  %6 = icmp ne i32 %5, 1
  br i1 %6, label %7, label %8

7:                                                ; preds = %2
  call void @_ZN4llvm3sys13swapByteOrderImEEvRT_(ptr noundef nonnull align 8 dereferenceable(8) %3)
  br label %8

8:                                                ; preds = %7, %2
  %9 = load i64, ptr %3, align 8
  ret i64 %9
}

; Function Attrs: mustprogress nounwind uwtable
define linkonce_odr hidden void @_ZN4llvm7support6endian5writeImLm8EEEvPvT_NS_10endiannessE(ptr noundef %0, i64 noundef %1, i32 noundef %2) #0 comdat {
  %4 = alloca ptr, align 8
  %5 = alloca i64, align 8
  %6 = alloca i32, align 4
  store ptr %0, ptr %4, align 8
  store i64 %1, ptr %5, align 8
  store i32 %2, ptr %6, align 4
  %7 = load i64, ptr %5, align 8
  %8 = load i32, ptr %6, align 4
  %9 = call noundef i64 @_ZN4llvm7support6endian9byte_swapImEET_S3_NS_10endiannessE(i64 noundef %7, i32 noundef %8)
  store i64 %9, ptr %5, align 8
  %10 = load ptr, ptr %4, align 8
  call void @llvm.assume(i1 true) [ "align"(ptr %10, i64 8) ]
  call void @llvm.memcpy.p0.p0.i64(ptr align 1 %10, ptr align 8 %5, i64 8, i1 false)
  ret void
}

; Function Attrs: mustprogress nounwind uwtable
define linkonce_odr hidden void @_ZN4llvm7support6endian5writeImLNS_10endiannessE1ELm8EEEvPvT_(ptr noundef %0, i64 noundef %1) #0 comdat {
  %3 = alloca ptr, align 8
  %4 = alloca i64, align 8
  store ptr %0, ptr %3, align 8
  store i64 %1, ptr %4, align 8
  %5 = load ptr, ptr %3, align 8
  %6 = load i64, ptr %4, align 8
  call void @_ZN4llvm7support6endian5writeImLm8EEEvPvT_NS_10endiannessE(ptr noundef %5, i64 noundef %6, i32 noundef 1)
  ret void
}

; Function Attrs: mustprogress nounwind uwtable
define linkonce_odr hidden void @_ZN4llvm7support6detail31packed_endian_specific_integralImLNS_10endiannessE1ELm8ELm8EEaSEm(ptr noundef nonnull align 8 dereferenceable(8) %0, i64 noundef %1) #0 comdat align 2 {
  %3 = alloca ptr, align 8
  %4 = alloca i64, align 8
  store ptr %0, ptr %3, align 8
  store i64 %1, ptr %4, align 8
  %5 = load ptr, ptr %3, align 8
  %6 = getelementptr inbounds nuw %"struct.llvm::support::detail::packed_endian_specific_integral", ptr %5, i32 0, i32 0
  %7 = getelementptr inbounds nuw %struct.anon, ptr %6, i32 0, i32 0
  %8 = getelementptr inbounds [8 x i8], ptr %7, i64 0, i64 0
  %9 = load i64, ptr %4, align 8
  call void @_ZN4llvm7support6endian5writeImLNS_10endiannessE1ELm8EEEvPvT_(ptr noundef %8, i64 noundef %9)
  ret void
}

; Function Attrs: mustprogress nounwind uwtable
define linkonce_odr hidden void @_ZN5clang14DeclAccessPair3setEPNS_9NamedDeclENS_15AccessSpecifierE(ptr noundef nonnull align 8 dereferenceable(8) %0, ptr noundef %1, i32 noundef %2) #0 comdat align 2 {
  %4 = alloca ptr, align 8
  %5 = alloca ptr, align 8
  %6 = alloca i32, align 4
  store ptr %0, ptr %4, align 8
  store ptr %1, ptr %5, align 8
  store i32 %2, ptr %6, align 4
  %7 = load ptr, ptr %4, align 8
  %8 = load i32, ptr %6, align 4
  %9 = zext i32 %8 to i64
  %10 = load ptr, ptr %5, align 8
  %11 = ptrtoint ptr %10 to i64
  %12 = or i64 %9, %11
  %13 = getelementptr inbounds nuw %"class.clang::DeclAccessPair", ptr %7, i32 0, i32 0
  call void @_ZN4llvm7support6detail31packed_endian_specific_integralImLNS_10endiannessE1ELm8ELm8EEaSEm(ptr noundef nonnull align 8 dereferenceable(8) %13, i64 noundef %12)
  ret void
}

; Function Attrs: mustprogress nounwind uwtable
define linkonce_odr hidden i64 @_ZNK5clang9ValueDecl7getTypeEv(ptr noundef nonnull align 8 dereferenceable(56) %0) #0 comdat align 2 {
  %2 = alloca %"class.clang::QualType", align 8
  %3 = alloca ptr, align 8
  store ptr %0, ptr %3, align 8
  %4 = load ptr, ptr %3, align 8
  %5 = getelementptr inbounds nuw %"class.clang::ValueDecl", ptr %4, i32 0, i32 1
  call void @llvm.memcpy.p0.p0.i64(ptr align 8 %2, ptr align 8 %5, i64 8, i1 false)
  %6 = getelementptr inbounds nuw %"class.clang::QualType", ptr %2, i32 0, i32 0
  %7 = getelementptr inbounds nuw %"class.llvm::PointerIntPair.4", ptr %6, i32 0, i32 0
  %8 = getelementptr inbounds nuw %"struct.llvm::detail::PunnedPointer.5", ptr %7, i32 0, i32 0
  %9 = load i64, ptr %8, align 8
  ret i64 %9
}

; Function Attrs: mustprogress nounwind uwtable
define linkonce_odr hidden void @_ZN5clang19DeclarationNameInfoC2ENS_15DeclarationNameENS_14SourceLocationE(ptr noundef nonnull align 8 dereferenceable(24) %0, i64 %1, i32 %2) unnamed_addr #0 comdat align 2 {
  %4 = alloca %"class.clang::DeclarationName", align 8
  %5 = alloca %"class.clang::SourceLocation", align 4
  %6 = alloca ptr, align 8
  %7 = alloca %"class.clang::DeclarationName", align 8
  %8 = getelementptr inbounds nuw %"class.clang::DeclarationName", ptr %4, i32 0, i32 0
  store i64 %1, ptr %8, align 8
  %9 = getelementptr inbounds nuw %"class.clang::SourceLocation", ptr %5, i32 0, i32 0
  store i32 %2, ptr %9, align 4
  store ptr %0, ptr %6, align 8
  %10 = load ptr, ptr %6, align 8
  %11 = getelementptr inbounds nuw %"struct.clang::DeclarationNameInfo", ptr %10, i32 0, i32 0
  call void @llvm.memcpy.p0.p0.i64(ptr align 8 %11, ptr align 8 %4, i64 8, i1 false)
  %12 = getelementptr inbounds nuw %"struct.clang::DeclarationNameInfo", ptr %10, i32 0, i32 1
  call void @llvm.memcpy.p0.p0.i64(ptr align 8 %12, ptr align 4 %5, i64 4, i1 false)
  %13 = getelementptr inbounds nuw %"struct.clang::DeclarationNameInfo", ptr %10, i32 0, i32 2
  call void @llvm.memcpy.p0.p0.i64(ptr align 8 %7, ptr align 8 %4, i64 8, i1 false)
  %14 = getelementptr inbounds nuw %"class.clang::DeclarationName", ptr %7, i32 0, i32 0
  %15 = load i64, ptr %14, align 8
  call void @_ZN5clang18DeclarationNameLocC1ENS_15DeclarationNameE(ptr noundef nonnull align 8 dereferenceable(8) %13, i64 %15)
  ret void
}

; Function Attrs: mustprogress nounwind uwtable
define linkonce_odr hidden i64 @_ZNK5clang9NamedDecl11getDeclNameEv(ptr noundef nonnull align 8 dereferenceable(48) %0) #0 comdat align 2 {
  %2 = alloca %"class.clang::DeclarationName", align 8
  %3 = alloca ptr, align 8
  store ptr %0, ptr %3, align 8
  %4 = load ptr, ptr %3, align 8
  %5 = getelementptr inbounds nuw %"class.clang::NamedDecl", ptr %4, i32 0, i32 1
  call void @llvm.memcpy.p0.p0.i64(ptr align 8 %2, ptr align 8 %5, i64 8, i1 false)
  %6 = getelementptr inbounds nuw %"class.clang::DeclarationName", ptr %2, i32 0, i32 0
  %7 = load i64, ptr %6, align 8
  ret i64 %7
}

; Function Attrs: mustprogress nounwind uwtable
define linkonce_odr hidden void @_ZN5clang22NestedNameSpecifierLocC2Ev(ptr noundef nonnull align 8 dereferenceable(16) %0) unnamed_addr #0 comdat align 2 {
  %2 = alloca ptr, align 8
  store ptr %0, ptr %2, align 8
  %3 = load ptr, ptr %2, align 8
  %4 = getelementptr inbounds nuw %"class.clang::NestedNameSpecifierLoc", ptr %3, i32 0, i32 0
  store ptr null, ptr %4, align 8
  %5 = getelementptr inbounds nuw %"class.clang::NestedNameSpecifierLoc", ptr %3, i32 0, i32 1
  store ptr null, ptr %5, align 8
  ret void
}

; Function Attrs: mustprogress nounwind uwtable
define linkonce_odr hidden void @_ZN5clang14SourceLocationC2Ev(ptr noundef nonnull align 4 dereferenceable(4) %0) unnamed_addr #0 comdat align 2 {
  %2 = alloca ptr, align 8
  store ptr %0, ptr %2, align 8
  %3 = load ptr, ptr %2, align 8
  %4 = getelementptr inbounds nuw %"class.clang::SourceLocation", ptr %3, i32 0, i32 0
  store i32 0, ptr %4, align 4
  ret void
}

; Function Attrs: mustprogress nounwind uwtable
define linkonce_odr hidden i64 @_ZN5clang14DeclAccessPair4makeEPNS_9NamedDeclENS_15AccessSpecifierE(ptr noundef %0, i32 noundef %1) #0 comdat align 2 {
  %3 = alloca %"class.clang::DeclAccessPair", align 8
  %4 = alloca ptr, align 8
  %5 = alloca i32, align 4
  store ptr %0, ptr %4, align 8
  store i32 %1, ptr %5, align 4
  %6 = load ptr, ptr %4, align 8
  %7 = load i32, ptr %5, align 4
  call void @_ZN5clang14DeclAccessPair3setEPNS_9NamedDeclENS_15AccessSpecifierE(ptr noundef nonnull align 8 dereferenceable(8) %3, ptr noundef %6, i32 noundef %7)
  %8 = getelementptr inbounds nuw %"class.clang::DeclAccessPair", ptr %3, i32 0, i32 0
  %9 = getelementptr inbounds nuw %"struct.llvm::support::detail::packed_endian_specific_integral", ptr %8, i32 0, i32 0
  %10 = getelementptr inbounds nuw %struct.anon, ptr %9, i32 0, i32 0
  %11 = load i64, ptr %10, align 8
  ret i64 %11
}

; Function Attrs: mustprogress nounwind uwtable
define internal noundef ptr @_ZN12_GLOBAL__N_18ASTMaker20makeMemberExpressionEPN5clang4ExprEPNS1_9ValueDeclEbNS1_13ExprValueKindE(ptr noundef nonnull align 8 dereferenceable(8) %0, ptr noundef %1, ptr noundef %2, i1 noundef zeroext %3, i32 noundef %4) #0 align 2 {
  %6 = alloca ptr, align 8
  %7 = alloca ptr, align 8
  %8 = alloca ptr, align 8
  %9 = alloca i8, align 1
  %10 = alloca i32, align 4
  %11 = alloca %"class.clang::DeclAccessPair", align 8
  %12 = alloca %"class.clang::SourceLocation", align 4
  %13 = alloca %"class.clang::NestedNameSpecifierLoc", align 8
  %14 = alloca %"class.clang::SourceLocation", align 4
  %15 = alloca %"class.clang::DeclAccessPair", align 8
  %16 = alloca %"struct.clang::DeclarationNameInfo", align 8
  %17 = alloca %"class.clang::DeclarationName", align 8
  %18 = alloca %"class.clang::SourceLocation", align 4
  %19 = alloca %"class.clang::QualType", align 8
  store ptr %0, ptr %6, align 8
  store ptr %1, ptr %7, align 8
  store ptr %2, ptr %8, align 8
  %20 = zext i1 %3 to i8
  store i8 %20, ptr %9, align 1
  store i32 %4, ptr %10, align 4
  %21 = load ptr, ptr %6, align 8
  %22 = load ptr, ptr %8, align 8
  %23 = call i64 @_ZN5clang14DeclAccessPair4makeEPNS_9NamedDeclENS_15AccessSpecifierE(ptr noundef %22, i32 noundef 0)
  %24 = getelementptr inbounds nuw %"class.clang::DeclAccessPair", ptr %11, i32 0, i32 0
  %25 = getelementptr inbounds nuw %"struct.llvm::support::detail::packed_endian_specific_integral", ptr %24, i32 0, i32 0
  %26 = getelementptr inbounds nuw %struct.anon, ptr %25, i32 0, i32 0
  store i64 %23, ptr %26, align 8
  %27 = getelementptr inbounds nuw %"class.(anonymous namespace)::ASTMaker", ptr %21, i32 0, i32 0
  %28 = load ptr, ptr %27, align 8
  %29 = load ptr, ptr %7, align 8
  %30 = load i8, ptr %9, align 1
  %31 = trunc i8 %30 to i1
  call void @llvm.memset.p0.i64(ptr align 4 %12, i8 0, i64 4, i1 false)
  call void @_ZN5clang14SourceLocationC2Ev(ptr noundef nonnull align 4 dereferenceable(4) %12) #9
  call void @llvm.memset.p0.i64(ptr align 8 %13, i8 0, i64 16, i1 false)
  call void @_ZN5clang22NestedNameSpecifierLocC2Ev(ptr noundef nonnull align 8 dereferenceable(16) %13) #9
  call void @llvm.memset.p0.i64(ptr align 4 %14, i8 0, i64 4, i1 false)
  call void @_ZN5clang14SourceLocationC2Ev(ptr noundef nonnull align 4 dereferenceable(4) %14) #9
  %32 = load ptr, ptr %8, align 8
  call void @llvm.memcpy.p0.p0.i64(ptr align 8 %15, ptr align 8 %11, i64 8, i1 false)
  %33 = load ptr, ptr %8, align 8
  %34 = call i64 @_ZNK5clang9NamedDecl11getDeclNameEv(ptr noundef nonnull align 8 dereferenceable(48) %33)
  %35 = getelementptr inbounds nuw %"class.clang::DeclarationName", ptr %17, i32 0, i32 0
  store i64 %34, ptr %35, align 8
  call void @llvm.memset.p0.i64(ptr align 4 %18, i8 0, i64 4, i1 false)
  call void @_ZN5clang14SourceLocationC2Ev(ptr noundef nonnull align 4 dereferenceable(4) %18) #9
  %36 = getelementptr inbounds nuw %"class.clang::DeclarationName", ptr %17, i32 0, i32 0
  %37 = load i64, ptr %36, align 8
  %38 = getelementptr inbounds nuw %"class.clang::SourceLocation", ptr %18, i32 0, i32 0
  %39 = load i32, ptr %38, align 4
  call void @_ZN5clang19DeclarationNameInfoC2ENS_15DeclarationNameENS_14SourceLocationE(ptr noundef nonnull align 8 dereferenceable(24) %16, i64 %37, i32 %39)
  %40 = load ptr, ptr %8, align 8
  %41 = call i64 @_ZNK5clang9ValueDecl7getTypeEv(ptr noundef nonnull align 8 dereferenceable(56) %40)
  %42 = getelementptr inbounds nuw %"class.clang::QualType", ptr %19, i32 0, i32 0
  %43 = getelementptr inbounds nuw %"class.llvm::PointerIntPair.4", ptr %42, i32 0, i32 0
  %44 = getelementptr inbounds nuw %"struct.llvm::detail::PunnedPointer.5", ptr %43, i32 0, i32 0
  store i64 %41, ptr %44, align 8
  %45 = load i32, ptr %10, align 4
  %46 = getelementptr inbounds nuw %"class.clang::SourceLocation", ptr %12, i32 0, i32 0
  %47 = load i32, ptr %46, align 4
  %48 = getelementptr inbounds nuw { ptr, ptr }, ptr %13, i32 0, i32 0
  %49 = load ptr, ptr %48, align 8
  %50 = getelementptr inbounds nuw { ptr, ptr }, ptr %13, i32 0, i32 1
  %51 = load ptr, ptr %50, align 8
  %52 = getelementptr inbounds nuw %"class.clang::SourceLocation", ptr %14, i32 0, i32 0
  %53 = load i32, ptr %52, align 4
  %54 = getelementptr inbounds nuw %"class.clang::DeclAccessPair", ptr %15, i32 0, i32 0
  %55 = getelementptr inbounds nuw %"struct.llvm::support::detail::packed_endian_specific_integral", ptr %54, i32 0, i32 0
  %56 = getelementptr inbounds nuw %struct.anon, ptr %55, i32 0, i32 0
  %57 = load i64, ptr %56, align 8
  %58 = getelementptr inbounds nuw %"class.clang::QualType", ptr %19, i32 0, i32 0
  %59 = getelementptr inbounds nuw %"class.llvm::PointerIntPair.4", ptr %58, i32 0, i32 0
  %60 = getelementptr inbounds nuw %"struct.llvm::detail::PunnedPointer.5", ptr %59, i32 0, i32 0
  %61 = load i64, ptr %60, align 8
  %62 = call noundef ptr @_ZN5clang10MemberExpr6CreateERKNS_10ASTContextEPNS_4ExprEbNS_14SourceLocationENS_22NestedNameSpecifierLocES6_PNS_9ValueDeclENS_14DeclAccessPairENS_19DeclarationNameInfoEPKNS_24TemplateArgumentListInfoENS_8QualTypeENS_13ExprValueKindENS_14ExprObjectKindENS_15NonOdrUseReasonE(ptr noundef nonnull align 8 dereferenceable(23096) %28, ptr noundef %29, i1 noundef zeroext %31, i32 %47, ptr %49, ptr %51, i32 %53, ptr noundef %32, i64 %57, ptr noundef byval(%"struct.clang::DeclarationNameInfo") align 8 %16, ptr noundef null, i64 %61, i32 noundef %45, i32 noundef 0, i32 noundef 0)
  ret ptr %62
}