; Function Attrs: mustprogress nounwind uwtable
define internal fastcc noundef ptr @_ZN12_GLOBAL__N_18ASTMaker20makeMemberExpressionEPN5clang4ExprEPNS1_9ValueDeclEbNS1_13ExprValueKindE(ptr %.0.val, ptr noundef %0, ptr noundef %1) unnamed_addr #0 align 2 {
  %3 = alloca %"struct.clang::DeclarationNameInfo", align 8
  %4 = ptrtoint ptr %1 to i64
  %5 = getelementptr inbounds nuw i8, ptr %1, i64 40
  %.sroa.0.0.copyload.i = load i64, ptr %5, align 8
  store i64 %.sroa.0.0.copyload.i, ptr %3, align 8
  %6 = getelementptr inbounds nuw i8, ptr %3, i64 8
  store i32 0, ptr %6, align 8
  %7 = getelementptr inbounds nuw i8, ptr %3, i64 16
  call void @_ZN5clang18DeclarationNameLocC1ENS_15DeclarationNameE(ptr noundef nonnull align 8 dereferenceable(8) %7, i64 %.sroa.0.0.copyload.i) #10
  %8 = getelementptr inbounds nuw i8, ptr %1, i64 48
  %.sroa.0.0.copyload.i10 = load i64, ptr %8, align 8
  %9 = call noundef ptr @_ZN5clang10MemberExpr6CreateERKNS_10ASTContextEPNS_4ExprEbNS_14SourceLocationENS_22NestedNameSpecifierLocES6_PNS_9ValueDeclENS_14DeclAccessPairENS_19DeclarationNameInfoEPKNS_24TemplateArgumentListInfoENS_8QualTypeENS_13ExprValueKindENS_14ExprObjectKindENS_15NonOdrUseReasonE(ptr noundef nonnull align 8 dereferenceable(23096) %.0.val, ptr noundef %0, i1 noundef zeroext false, i32 0, ptr null, ptr null, i32 0, ptr noundef nonnull %1, i64 %4, ptr noundef nonnull byval(%"struct.clang::DeclarationNameInfo") align 8 %3, ptr noundef null, i64 %.sroa.0.0.copyload.i10, i32 noundef 1, i32 noundef 0, i32 noundef 0) #10
  ret ptr %9
}